; Function Attrs: nounwind uwtable
define range(i32 -47, 1) i32 @pmix_hwloc_copy_topology(ptr noundef %0, ptr noundef readonly captures(none) %1) local_unnamed_addr #0 {
  %3 = load ptr, ptr %1, align 8, !tbaa !21
  %4 = icmp eq ptr %3, null
  br i1 %4, label %13, label %5

5:                                                ; preds = %2
  %6 = tail call i32 @strncasecmp(ptr noundef nonnull %3, ptr noundef nonnull @.str, i64 noundef 5) #8
  %.not = icmp eq i32 %6, 0
  br i1 %.not, label %7, label %13

7:                                                ; preds = %5
  %8 = tail call noalias dereferenceable_or_null(6) ptr @strdup(ptr noundef nonnull @.str) #7
  store ptr %8, ptr %0, align 8, !tbaa !21
  %9 = getelementptr inbounds nuw i8, ptr %0, i64 8
  %10 = getelementptr inbounds nuw i8, ptr %1, i64 8
  %11 = load ptr, ptr %10, align 8, !tbaa !23
  %12 = tail call i32 @hwloc_topology_dup(ptr noundef nonnull %9, ptr noundef %11) #7
  %.not6 = icmp ne i32 %12, 0
  %. = sext i1 %.not6 to i32
  br label %13

13:                                               ; preds = %7, %2, %5
  %.0 = phi i32 [ -47, %5 ], [ -47, %2 ], [ %., %7 ]
  ret i32 %.0
}